; Function Attrs: mustprogress nofree norecurse nosync nounwind sspstrong willreturn memory(argmem: readwrite) uwtable
define internal void @of_dpa_acl_action_write(ptr noundef writeonly captures(none) %fc, ptr noundef readonly captures(none) %flow) #9 {
entry:
  %write = getelementptr inbounds nuw i8, ptr %flow, i64 244
  %0 = load i32, ptr %write, align 4
  %cmp.not = icmp eq i32 %0, 0
  br i1 %cmp.not, label %if.end, label %if.then

if.then:                                          ; preds = %entry
  %write4 = getelementptr inbounds nuw i8, ptr %fc, i64 124
  store i32 %0, ptr %write4, align 4
  br label %if.end

if.end:                                           ; preds = %if.then, %entry
  ret void
}